target datalayout = "e-m:e-p270:32:32-p271:32:32-p272:64:64-i64:64-i128:128-f80:128-n8:16:32:64-S128"
target triple = "x86_64-pc-linux-gnu"

%"struct.rocksdb::WriteThread::Writer" = type <{ ptr, i8, i8, i8, i8, i32, i8, [7 x i8], i64, i64, ptr, ptr, i64, i64, ptr, ptr, i8, %"struct.std::atomic.3", [6 x i8], ptr, i64, %"class.rocksdb::Status", %"class.rocksdb::Status", %"struct.rocksdb::aligned_storage<std::mutex>::type", %"struct.rocksdb::aligned_storage<std::condition_variable>::type", ptr, ptr, i8, [7 x i8] }>
%"struct.std::atomic.3" = type { %"struct.std::__atomic_base.4" }
%"struct.std::__atomic_base.4" = type { i8 }
%"class.rocksdb::Status" = type { i8, i8, i8, i8, i8, i8, %"class.std::unique_ptr" }
%"class.std::unique_ptr" = type { %"struct.std::__uniq_ptr_data" }
%"struct.std::__uniq_ptr_data" = type { %"class.std::__uniq_ptr_impl" }
%"class.std::__uniq_ptr_impl" = type { %"class.std::tuple" }
%"class.std::tuple" = type { %"struct.std::_Tuple_impl" }
%"struct.std::_Tuple_impl" = type { %"struct.std::_Head_base.6" }
%"struct.std::_Head_base.6" = type { ptr }
%"struct.rocksdb::aligned_storage<std::mutex>::type" = type { [40 x i8] }
%"struct.rocksdb::aligned_storage<std::condition_variable>::type" = type { [48 x i8] }

; Function Attrs: mustprogress nounwind uwtable
define void @_ZN7rocksdb11WriteThread23CreateMissingNewerLinksEPNS0_6WriterE(ptr noundef nonnull align 8 dereferenceable(432) %0, ptr noundef %1) #3 align 2 {
  %3 = alloca ptr, align 8
  %4 = alloca ptr, align 8
  %5 = alloca ptr, align 8
  %6 = alloca i32, align 4
  store ptr %0, ptr %3, align 8, !tbaa !48
  store ptr %1, ptr %4, align 8, !tbaa !152
  br label %7

7:                                                ; preds = %2, %26
  call void @llvm.lifetime.start.p0(i64 8, ptr %5) #4
  %8 = load ptr, ptr %4, align 8, !tbaa !152
  %9 = getelementptr inbounds nuw %"struct.rocksdb::WriteThread::Writer", ptr %8, i32 0, i32 25
  %10 = load ptr, ptr %9, align 8, !tbaa !170
  store ptr %10, ptr %5, align 8, !tbaa !152
  %11 = load ptr, ptr %5, align 8, !tbaa !152
  %12 = icmp eq ptr %11, null
  br i1 %12, label %18, label %13

13:                                               ; preds = %7
  %14 = load ptr, ptr %5, align 8, !tbaa !152
  %15 = getelementptr inbounds nuw %"struct.rocksdb::WriteThread::Writer", ptr %14, i32 0, i32 26
  %16 = load ptr, ptr %15, align 8, !tbaa !171
  %17 = icmp ne ptr %16, null
  br i1 %17, label %18, label %19

18:                                               ; preds = %13, %7
  store i32 3, ptr %6, align 4
  br label %24

19:                                               ; preds = %13
  %20 = load ptr, ptr %4, align 8, !tbaa !152
  %21 = load ptr, ptr %5, align 8, !tbaa !152
  %22 = getelementptr inbounds nuw %"struct.rocksdb::WriteThread::Writer", ptr %21, i32 0, i32 26
  store ptr %20, ptr %22, align 8, !tbaa !171
  %23 = load ptr, ptr %5, align 8, !tbaa !152
  store ptr %23, ptr %4, align 8, !tbaa !152
  store i32 0, ptr %6, align 4
  br label %24

24:                                               ; preds = %19, %18
  call void @llvm.lifetime.end.p0(i64 8, ptr %5) #4
  %25 = load i32, ptr %6, align 4
  switch i32 %25, label %28 [
    i32 0, label %26
    i32 3, label %27
  ]

26:                                               ; preds = %24
  br label %7, !llvm.loop !263

27:                                               ; preds = %24
  ret void

28:                                               ; preds = %24
  unreachable
}