; Function Attrs: mustprogress nofree norecurse nosync nounwind memory(readwrite, inaccessiblemem: none) uwtable
define void @_ZN7rocksdb11WriteThread23CreateMissingNewerLinksEPNS0_6WriterE(ptr noundef nonnull readnone align 8 captures(none) dereferenceable(432) %0, ptr noundef %1) local_unnamed_addr #10 align 2 {
  %3 = getelementptr inbounds nuw i8, ptr %1, i64 232
  %4 = load ptr, ptr %3, align 8, !tbaa !159
  %5 = icmp eq ptr %4, null
  br i1 %5, label %._crit_edge, label %.lr.ph

.lr.ph:                                           ; preds = %2, %9
  %6 = phi ptr [ %11, %9 ], [ %4, %2 ]
  %.0611 = phi ptr [ %6, %9 ], [ %1, %2 ]
  %7 = getelementptr inbounds nuw i8, ptr %6, i64 240
  %8 = load ptr, ptr %7, align 8, !tbaa !165
  %.not = icmp eq ptr %8, null
  br i1 %.not, label %9, label %._crit_edge

9:                                                ; preds = %.lr.ph
  store ptr %.0611, ptr %7, align 8, !tbaa !165
  %10 = getelementptr inbounds nuw i8, ptr %6, i64 232
  %11 = load ptr, ptr %10, align 8, !tbaa !159
  %12 = icmp eq ptr %11, null
  br i1 %12, label %._crit_edge, label %.lr.ph

._crit_edge:                                      ; preds = %9, %.lr.ph, %2
  ret void
}